target datalayout = "e-m:e-p270:32:32-p271:32:32-p272:64:64-i64:64-i128:128-f80:128-n8:16:32:64-S128"
target triple = "x86_64-pc-linux-gnu"

%struct.weakmap_entry = type { i64, i64 }

; Function Attrs: nounwind sspstrong uwtable
define internal i32 @wmap_aset_replace(ptr noundef %0, ptr noundef %1, i64 noundef %2, i32 noundef %3) #0 {
  %5 = alloca ptr, align 8
  %6 = alloca ptr, align 8
  %7 = alloca i64, align 8
  %8 = alloca i32, align 4
  %9 = alloca i64, align 8
  %10 = alloca i64, align 8
  %11 = alloca ptr, align 8
  store ptr %0, ptr %5, align 8, !tbaa !48
  store ptr %1, ptr %6, align 8, !tbaa !48
  store i64 %2, ptr %7, align 8, !tbaa !7
  store i32 %3, ptr %8, align 4, !tbaa !46
  call void @llvm.lifetime.start.p0(i64 8, ptr %9) #15
  %12 = load i64, ptr %7, align 8, !tbaa !7
  %13 = inttoptr i64 %12 to ptr
  %14 = load i64, ptr %13, align 8, !tbaa !7
  store i64 %14, ptr %9, align 8, !tbaa !7
  call void @llvm.lifetime.start.p0(i64 8, ptr %10) #15
  %15 = load i64, ptr %7, align 8, !tbaa !7
  %16 = inttoptr i64 %15 to ptr
  %17 = getelementptr i64, ptr %16, i64 1
  %18 = load i64, ptr %17, align 8, !tbaa !7
  store i64 %18, ptr %10, align 8, !tbaa !7
  %19 = load i32, ptr %8, align 4, !tbaa !46
  %20 = icmp ne i32 %19, 0
  br i1 %20, label %21, label %22

21:                                               ; preds = %4
  br label %32

22:                                               ; preds = %4
  call void @llvm.lifetime.start.p0(i64 8, ptr %11) #15
  %23 = call noalias nonnull ptr @ruby_xmalloc(i64 noundef 16) #19
  store ptr %23, ptr %11, align 8, !tbaa !17
  %24 = load ptr, ptr %11, align 8, !tbaa !17
  %25 = getelementptr inbounds nuw %struct.weakmap_entry, ptr %24, i32 0, i32 0
  %26 = ptrtoint ptr %25 to i64
  %27 = load ptr, ptr %5, align 8, !tbaa !48
  store i64 %26, ptr %27, align 8, !tbaa !7
  %28 = load ptr, ptr %11, align 8, !tbaa !17
  %29 = getelementptr inbounds nuw %struct.weakmap_entry, ptr %28, i32 0, i32 1
  %30 = ptrtoint ptr %29 to i64
  %31 = load ptr, ptr %6, align 8, !tbaa !48
  store i64 %30, ptr %31, align 8, !tbaa !7
  call void @llvm.lifetime.end.p0(i64 8, ptr %11) #15
  br label %32

32:                                               ; preds = %22, %21
  %33 = load i64, ptr %9, align 8, !tbaa !7
  %34 = load ptr, ptr %5, align 8, !tbaa !48
  %35 = load i64, ptr %34, align 8, !tbaa !7
  %36 = inttoptr i64 %35 to ptr
  store i64 %33, ptr %36, align 8, !tbaa !7
  %37 = load i64, ptr %10, align 8, !tbaa !7
  %38 = load ptr, ptr %6, align 8, !tbaa !48
  %39 = load i64, ptr %38, align 8, !tbaa !7
  %40 = inttoptr i64 %39 to ptr
  store i64 %37, ptr %40, align 8, !tbaa !7
  call void @llvm.lifetime.end.p0(i64 8, ptr %10) #15
  call void @llvm.lifetime.end.p0(i64 8, ptr %9) #15
  ret i32 0
}