; Function Attrs: nounwind sspstrong uwtable
define internal noundef i32 @wmap_aset_replace(ptr noundef captures(none) %0, ptr noundef captures(none) %1, i64 noundef %2, i32 noundef %3) #0 {
  %5 = inttoptr i64 %2 to ptr
  %6 = load i64, ptr %5, align 8, !tbaa !7
  %7 = getelementptr i8, ptr %5, i64 8
  %8 = load i64, ptr %7, align 8, !tbaa !7
  %.not = icmp eq i32 %3, 0
  br i1 %.not, label %9, label %14

9:                                                ; preds = %4
  %10 = tail call noalias nonnull dereferenceable(16) ptr @ruby_xmalloc(i64 noundef 16) #13
  %11 = ptrtoint ptr %10 to i64
  store i64 %11, ptr %0, align 8, !tbaa !7
  %12 = getelementptr inbounds nuw i8, ptr %10, i64 8
  %13 = ptrtoint ptr %12 to i64
  store i64 %13, ptr %1, align 8, !tbaa !7
  br label %14

14:                                               ; preds = %4, %9
  %15 = load i64, ptr %0, align 8, !tbaa !7
  %16 = inttoptr i64 %15 to ptr
  store i64 %6, ptr %16, align 8, !tbaa !7
  %17 = load i64, ptr %1, align 8, !tbaa !7
  %18 = inttoptr i64 %17 to ptr
  store i64 %8, ptr %18, align 8, !tbaa !7
  ret i32 0
}